target datalayout = "e-m:e-p270:32:32-p271:32:32-p272:64:64-i64:64-i128:128-f80:128-n8:16:32:64-S128"
target triple = "x86_64-pc-linux-gnu"

%"class.spacer::lemma_global_generalizer::subsumer" = type { %"struct.spacer::lemma_global_generalizer::subsumer::stats", ptr, %class.arith_util, %class.bv_util, %class.ref_vector, i32, %class.ref_vector, %class.vector.0, i8, %class.ref }
%"struct.spacer::lemma_global_generalizer::subsumer::stats" = type { i32, i32, i32, [4 x i8], %class.stopwatch }
%class.stopwatch = type <{ %"class.std::chrono::time_point", %"class.std::chrono::duration", i8, [7 x i8] }>
%"class.std::chrono::time_point" = type { %"class.std::chrono::duration" }
%"class.std::chrono::duration" = type { i64 }
%class.arith_util = type { ptr, ptr }
%class.bv_util = type { %class.bv_recognizers, ptr, ptr }
%class.bv_recognizers = type { i32 }
%class.ref_vector = type { %class.ref_vector_core }
%class.ref_vector_core = type { %class.ref_manager_wrapper, %class.ptr_vector }
%class.ref_manager_wrapper = type { ptr }
%class.ptr_vector = type { %class.vector }
%class.vector = type { ptr }
%class.vector.0 = type { ptr }
%class.ref = type { ptr }

@.str.6 = private unnamed_addr constant [31 x i8] c"SPACER num no over approximate\00", align 1
@.str.7 = private unnamed_addr constant [24 x i8] c"SPACER num sync cvx cls\00", align 1
@.str.8 = private unnamed_addr constant [22 x i8] c"SPACER num mbp failed\00", align 1

; Function Attrs: mustprogress uwtable
define hidden void @_ZNK6spacer24lemma_global_generalizer8subsumer18collect_statisticsER10statistics(ptr noundef nonnull align 8 dereferenceable(152) %0, ptr noundef nonnull align 8 dereferenceable(16) %1) #4 align 2 {
  %3 = alloca ptr, align 8
  %4 = alloca ptr, align 8
  store ptr %0, ptr %3, align 8, !tbaa !3
  store ptr %1, ptr %4, align 8, !tbaa !405
  %5 = load ptr, ptr %3, align 8
  %6 = load ptr, ptr %4, align 8, !tbaa !405
  %7 = getelementptr inbounds nuw %"class.spacer::lemma_global_generalizer::subsumer", ptr %5, i32 0, i32 0
  %8 = getelementptr inbounds nuw %"struct.spacer::lemma_global_generalizer::subsumer::stats", ptr %7, i32 0, i32 2
  %9 = load i32, ptr %8, align 8, !tbaa !326
  call void @_ZN10statistics6updateEPKcj(ptr noundef nonnull align 8 dereferenceable(16) %6, ptr noundef @.str.6, i32 noundef %9)
  %10 = load ptr, ptr %4, align 8, !tbaa !405
  %11 = getelementptr inbounds nuw %"class.spacer::lemma_global_generalizer::subsumer", ptr %5, i32 0, i32 0
  %12 = getelementptr inbounds nuw %"struct.spacer::lemma_global_generalizer::subsumer::stats", ptr %11, i32 0, i32 0
  %13 = load i32, ptr %12, align 8, !tbaa !314
  call void @_ZN10statistics6updateEPKcj(ptr noundef nonnull align 8 dereferenceable(16) %10, ptr noundef @.str.7, i32 noundef %13)
  %14 = load ptr, ptr %4, align 8, !tbaa !405
  %15 = getelementptr inbounds nuw %"class.spacer::lemma_global_generalizer::subsumer", ptr %5, i32 0, i32 0
  %16 = getelementptr inbounds nuw %"struct.spacer::lemma_global_generalizer::subsumer::stats", ptr %15, i32 0, i32 1
  %17 = load i32, ptr %16, align 4, !tbaa !407
  call void @_ZN10statistics6updateEPKcj(ptr noundef nonnull align 8 dereferenceable(16) %14, ptr noundef @.str.8, i32 noundef %17)
  ret void
}