; Function Attrs: mustprogress uwtable
define hidden void @_ZNK6spacer24lemma_global_generalizer8subsumer18collect_statisticsER10statistics(ptr noundef nonnull readonly align 8 captures(none) dereferenceable(152) %0, ptr noundef nonnull align 8 dereferenceable(16) %1) local_unnamed_addr #3 align 2 {
  %3 = getelementptr inbounds nuw i8, ptr %0, i64 8
  %4 = load i32, ptr %3, align 8, !tbaa !397
  tail call void @_ZN10statistics6updateEPKcj(ptr noundef nonnull align 8 dereferenceable(16) %1, ptr noundef nonnull @.str.6, i32 noundef %4)
  %5 = load i32, ptr %0, align 8, !tbaa !335
  tail call void @_ZN10statistics6updateEPKcj(ptr noundef nonnull align 8 dereferenceable(16) %1, ptr noundef nonnull @.str.7, i32 noundef %5)
  %6 = getelementptr inbounds nuw i8, ptr %0, i64 4
  %7 = load i32, ptr %6, align 4, !tbaa !427
  tail call void @_ZN10statistics6updateEPKcj(ptr noundef nonnull align 8 dereferenceable(16) %1, ptr noundef nonnull @.str.8, i32 noundef %7)
  ret void
}